; Function Attrs: cold inlinehint nounwind uwtable
define internal noundef i32 @myVerify(i32 noundef %0, ptr noundef readonly captures(none) %1) #10 {
  %3 = alloca [80 x i8], align 16
  call void @llvm.lifetime.start.p0(i64 80, ptr nonnull %3) #20
  %4 = load ptr, ptr @stderr, align 8, !tbaa !26
  %5 = getelementptr inbounds nuw i8, ptr %1, i64 24
  %6 = load i32, ptr %5, align 8, !tbaa !55
  %7 = sext i32 %6 to i64
  %8 = call ptr @wolfSSL_ERR_error_string(i64 noundef %7, ptr noundef nonnull %3) #20
  %9 = call i32 (ptr, ptr, ...) @fprintf(ptr noundef %4, ptr noundef nonnull @.str.176, i32 noundef %6, ptr noundef %8) #26
  %10 = getelementptr inbounds nuw i8, ptr %1, i64 36
  %11 = load i32, ptr %10, align 4, !tbaa !59
  %12 = call i32 (ptr, ...) @printf(ptr noundef nonnull dereferenceable(1) @.str.177, i32 noundef %11)
  %13 = getelementptr inbounds nuw i8, ptr %1, i64 28
  %14 = load i32, ptr %13, align 4, !tbaa !60
  %15 = getelementptr inbounds nuw i8, ptr %1, i64 8
  %16 = load ptr, ptr %15, align 8, !tbaa !61
  %17 = call i32 (ptr, ...) @printf(ptr noundef nonnull dereferenceable(1) @.str.178, i32 noundef %14, ptr noundef %16)
  %18 = call align 4 ptr @llvm.threadlocal.address.p0(ptr align 4 @myVerifyAction)
  %19 = load i32, ptr %18, align 4, !tbaa !4
  switch i32 %19, label %23 [
    i32 1, label %.thread.thread
    i32 3, label %20
  ]

20:                                               ; preds = %2
  %21 = load i32, ptr %5, align 8, !tbaa !55
  %.off = add i32 %21, 151
  %switch = icmp ult i32 %.off, 2
  br i1 %switch, label %22, label %.thread.thread

22:                                               ; preds = %20
  %puts13 = call i32 @puts(ptr nonnull dereferenceable(1) @str.12)
  br label %.thread.thread

23:                                               ; preds = %2
  %24 = load i32, ptr %5, align 8, !tbaa !55
  %25 = icmp ne i32 %24, 0
  %26 = icmp eq i32 %19, 0
  %or.cond = and i1 %26, %25
  br i1 %or.cond, label %27, label %.thread

27:                                               ; preds = %23
  %puts = call i32 @puts(ptr nonnull dereferenceable(1) @str.11)
  %.pre = load i32, ptr %18, align 4, !tbaa !4
  %28 = freeze i32 %.pre
  br label %.thread

.thread:                                          ; preds = %27, %23
  %.fr = phi i32 [ %28, %27 ], [ %19, %23 ]
  %29 = icmp eq i32 %.fr, 0
  %spec.select = select i1 %29, i32 1, i32 %0
  br label %.thread.thread

.thread.thread:                                   ; preds = %.thread, %20, %2, %22
  %.0 = phi i32 [ 1, %22 ], [ 0, %2 ], [ %0, %20 ], [ %spec.select, %.thread ]
  call void @llvm.lifetime.end.p0(i64 80, ptr nonnull %3) #20
  ret i32 %.0
}